; Function Attrs: mustprogress nounwind uwtable
define hidden void @_ZNK8CloneMap4dumpEjP12outputStream(ptr nocapture noundef nonnull readonly align 8 dereferenceable(20) %0, i32 noundef %1, ptr noundef %2) local_unnamed_addr #0 align 2 {
  %4 = getelementptr inbounds i8, ptr %0, i64 8
  %5 = load ptr, ptr %4, align 8
  %6 = zext i32 %1 to i64
  %7 = inttoptr i64 %6 to ptr
  %8 = tail call noundef ptr @_ZNK4DictixEPKv(ptr noundef nonnull align 8 dereferenceable(40) %5, ptr noundef %7) #17
  %.not = icmp eq ptr %8, null
  br i1 %.not, label %14, label %9

9:                                                ; preds = %3
  %10 = ptrtoint ptr %8 to i64
  %11 = trunc i64 %10 to i32
  %12 = lshr i64 %10, 32
  %13 = trunc nuw i64 %12 to i32
  tail call void (ptr, ptr, ...) @_ZN12outputStream5printEPKcz(ptr noundef nonnull align 8 dereferenceable(56) %2, ptr noundef nonnull @.str.52, i32 noundef %11, i32 noundef %13) #17
  br label %14

14:                                               ; preds = %9, %3
  ret void
}